
build/RFMDisplay.elf:     file format elf32-avr

Sections:
Idx Name          Size      VMA       LMA       File off  Algn
  0 .text         000005ca  00000000  00000000  00000094  2**1
                  CONTENTS, ALLOC, LOAD, READONLY, CODE
  1 .data         00000000  00800060  000005ca  0000065e  2**0
                  CONTENTS, ALLOC, LOAD, DATA
  2 .bss          0000002a  00800060  00800060  0000065e  2**0
                  ALLOC
  3 .stab         000006cc  00000000  00000000  00000660  2**2
                  CONTENTS, READONLY, DEBUGGING
  4 .stabstr      00000054  00000000  00000000  00000d2c  2**0
                  CONTENTS, READONLY, DEBUGGING
  5 .comment      00000011  00000000  00000000  00000d80  2**0
                  CONTENTS, READONLY

Disassembly of section .text:

00000000 <__vectors>:
   0:	20 c0       	rjmp	.+64     	; 0x42 <__ctors_end>
   2:	7d c1       	rjmp	.+762    	; 0x2fe <__vector_1>
   4:	2e c0       	rjmp	.+92     	; 0x62 <__bad_interrupt>
   6:	2d c0       	rjmp	.+90     	; 0x62 <__bad_interrupt>
   8:	7a c0       	rjmp	.+244    	; 0xfe <__vector_4>
   a:	2b c0       	rjmp	.+86     	; 0x62 <__bad_interrupt>
   c:	2a c0       	rjmp	.+84     	; 0x62 <__bad_interrupt>
   e:	29 c0       	rjmp	.+82     	; 0x62 <__bad_interrupt>
  10:	28 c0       	rjmp	.+80     	; 0x62 <__bad_interrupt>
  12:	27 c0       	rjmp	.+78     	; 0x62 <__bad_interrupt>
  14:	26 c0       	rjmp	.+76     	; 0x62 <__bad_interrupt>
  16:	25 c0       	rjmp	.+74     	; 0x62 <__bad_interrupt>
  18:	24 c0       	rjmp	.+72     	; 0x62 <__bad_interrupt>
  1a:	23 c0       	rjmp	.+70     	; 0x62 <__bad_interrupt>
  1c:	22 c0       	rjmp	.+68     	; 0x62 <__bad_interrupt>
  1e:	21 c0       	rjmp	.+66     	; 0x62 <__bad_interrupt>
  20:	20 c0       	rjmp	.+64     	; 0x62 <__bad_interrupt>
  22:	1f c0       	rjmp	.+62     	; 0x62 <__bad_interrupt>
  24:	1e c0       	rjmp	.+60     	; 0x62 <__bad_interrupt>
  26:	1d c0       	rjmp	.+58     	; 0x62 <__bad_interrupt>
  28:	1c c0       	rjmp	.+56     	; 0x62 <__bad_interrupt>

0000002a <init_cmds>:
  2a:	e6 80 01 82 62 a6 23 c6 2c 94 ab c2 81 ca f7 c4     ....b.#.,.......
  3a:	70 98 00 c8 00 e0 81 82                             p.......

00000042 <__ctors_end>:
  42:	11 24       	eor	r1, r1
  44:	1f be       	out	0x3f, r1	; 63
  46:	cf e5       	ldi	r28, 0x5F	; 95
  48:	d1 e0       	ldi	r29, 0x01	; 1
  4a:	de bf       	out	0x3e, r29	; 62
  4c:	cd bf       	out	0x3d, r28	; 61

0000004e <__do_clear_bss>:
  4e:	10 e0       	ldi	r17, 0x00	; 0
  50:	a0 e6       	ldi	r26, 0x60	; 96
  52:	b0 e0       	ldi	r27, 0x00	; 0
  54:	01 c0       	rjmp	.+2      	; 0x58 <.do_clear_bss_start>

00000056 <.do_clear_bss_loop>:
  56:	1d 92       	st	X+, r1

00000058 <.do_clear_bss_start>:
  58:	aa 38       	cpi	r26, 0x8A	; 138
  5a:	b1 07       	cpc	r27, r17
  5c:	e1 f7       	brne	.-8      	; 0x56 <.do_clear_bss_loop>
  5e:	99 d2       	rcall	.+1330   	; 0x592 <main>
  60:	b2 c2       	rjmp	.+1380   	; 0x5c6 <_exit>

00000062 <__bad_interrupt>:
  62:	ce cf       	rjmp	.-100    	; 0x0 <__vectors>

00000064 <refresh>:
  64:	80 91 61 00 	lds	r24, 0x0061
  68:	95 98       	cbi	0x12, 5	; 18
  6a:	2f e1       	ldi	r18, 0x1F	; 31
  6c:	30 e0       	ldi	r19, 0x00	; 0
  6e:	88 23       	and	r24, r24
  70:	e9 f0       	breq	.+58     	; 0xac <refresh+0x48>
  72:	80 91 62 00 	lds	r24, 0x0062
  76:	90 91 63 00 	lds	r25, 0x0063
  7a:	a0 91 64 00 	lds	r26, 0x0064
  7e:	b0 91 65 00 	lds	r27, 0x0065
  82:	02 2e       	mov	r0, r18
  84:	04 c0       	rjmp	.+8      	; 0x8e <refresh+0x2a>
  86:	b6 95       	lsr	r27
  88:	a7 95       	ror	r26
  8a:	97 95       	ror	r25
  8c:	87 95       	ror	r24
  8e:	0a 94       	dec	r0
  90:	d2 f7       	brpl	.-12     	; 0x86 <refresh+0x22>
  92:	80 ff       	sbrs	r24, 0
  94:	02 c0       	rjmp	.+4      	; 0x9a <refresh+0x36>
  96:	c0 9a       	sbi	0x18, 0	; 24
  98:	01 c0       	rjmp	.+2      	; 0x9c <refresh+0x38>
  9a:	c0 98       	cbi	0x18, 0	; 24
  9c:	c4 9a       	sbi	0x18, 4	; 24
  9e:	c4 98       	cbi	0x18, 4	; 24
  a0:	21 50       	subi	r18, 0x01	; 1
  a2:	31 09       	sbc	r19, r1
  a4:	30 f7       	brcc	.-52     	; 0x72 <refresh+0xe>
  a6:	95 9a       	sbi	0x12, 5	; 18
  a8:	90 98       	cbi	0x12, 0	; 18
  aa:	21 c0       	rjmp	.+66     	; 0xee <refresh+0x8a>
  ac:	80 91 62 00 	lds	r24, 0x0062
  b0:	90 91 63 00 	lds	r25, 0x0063
  b4:	a0 91 64 00 	lds	r26, 0x0064
  b8:	b0 91 65 00 	lds	r27, 0x0065
  bc:	80 95       	com	r24
  be:	90 95       	com	r25
  c0:	a0 95       	com	r26
  c2:	b0 95       	com	r27
  c4:	02 2e       	mov	r0, r18
  c6:	04 c0       	rjmp	.+8      	; 0xd0 <refresh+0x6c>
  c8:	b6 95       	lsr	r27
  ca:	a7 95       	ror	r26
  cc:	97 95       	ror	r25
  ce:	87 95       	ror	r24
  d0:	0a 94       	dec	r0
  d2:	d2 f7       	brpl	.-12     	; 0xc8 <refresh+0x64>
  d4:	80 ff       	sbrs	r24, 0
  d6:	02 c0       	rjmp	.+4      	; 0xdc <refresh+0x78>
  d8:	c0 9a       	sbi	0x18, 0	; 24
  da:	01 c0       	rjmp	.+2      	; 0xde <refresh+0x7a>
  dc:	c0 98       	cbi	0x18, 0	; 24
  de:	c4 9a       	sbi	0x18, 4	; 24
  e0:	c4 98       	cbi	0x18, 4	; 24
  e2:	21 50       	subi	r18, 0x01	; 1
  e4:	31 09       	sbc	r19, r1
  e6:	10 f7       	brcc	.-60     	; 0xac <refresh+0x48>
  e8:	82 b3       	in	r24, 0x12	; 18
  ea:	81 62       	ori	r24, 0x21	; 33
  ec:	82 bb       	out	0x12, r24	; 18
  ee:	90 91 61 00 	lds	r25, 0x0061
  f2:	81 e0       	ldi	r24, 0x01	; 1
  f4:	91 11       	cpse	r25, r1
  f6:	80 e0       	ldi	r24, 0x00	; 0
  f8:	80 93 61 00 	sts	0x0061, r24
  fc:	08 95       	ret

000000fe <__vector_4>:
  fe:	1f 92       	push	r1
 100:	0f 92       	push	r0
 102:	0f b6       	in	r0, 0x3f	; 63
 104:	0f 92       	push	r0
 106:	11 24       	eor	r1, r1
 108:	2f 93       	push	r18
 10a:	3f 93       	push	r19
 10c:	4f 93       	push	r20
 10e:	5f 93       	push	r21
 110:	6f 93       	push	r22
 112:	7f 93       	push	r23
 114:	8f 93       	push	r24
 116:	9f 93       	push	r25
 118:	af 93       	push	r26
 11a:	bf 93       	push	r27
 11c:	ef 93       	push	r30
 11e:	ff 93       	push	r31
 120:	a1 df       	rcall	.-190    	; 0x64 <refresh>
 122:	ff 91       	pop	r31
 124:	ef 91       	pop	r30
 126:	bf 91       	pop	r27
 128:	af 91       	pop	r26
 12a:	9f 91       	pop	r25
 12c:	8f 91       	pop	r24
 12e:	7f 91       	pop	r23
 130:	6f 91       	pop	r22
 132:	5f 91       	pop	r21
 134:	4f 91       	pop	r20
 136:	3f 91       	pop	r19
 138:	2f 91       	pop	r18
 13a:	0f 90       	pop	r0
 13c:	0f be       	out	0x3f, r0	; 63
 13e:	0f 90       	pop	r0
 140:	1f 90       	pop	r1
 142:	18 95       	reti

00000144 <setup>:
 144:	81 b3       	in	r24, 0x11	; 17
 146:	81 66       	ori	r24, 0x61	; 97
 148:	81 bb       	out	0x11, r24	; 17
 14a:	87 b3       	in	r24, 0x17	; 23
 14c:	81 61       	ori	r24, 0x11	; 17
 14e:	87 bb       	out	0x17, r24	; 23
 150:	8a 98       	cbi	0x11, 2	; 17
 152:	b9 98       	cbi	0x17, 1	; 23
 154:	c2 98       	cbi	0x18, 2	; 24
 156:	96 9a       	sbi	0x12, 6	; 18
 158:	10 92 61 00 	sts	0x0061, r1
 15c:	f8 94       	cli
 15e:	1e bc       	out	0x2e, r1	; 46
 160:	1f bc       	out	0x2f, r1	; 47
 162:	1d bc       	out	0x2d, r1	; 45
 164:	1c bc       	out	0x2c, r1	; 44
 166:	1b bc       	out	0x2b, r1	; 43
 168:	1a bc       	out	0x2a, r1	; 42
 16a:	19 bc       	out	0x29, r1	; 41
 16c:	18 bc       	out	0x28, r1	; 40
 16e:	89 b7       	in	r24, 0x39	; 57
 170:	87 71       	andi	r24, 0x17	; 23
 172:	89 bf       	out	0x39, r24	; 57
 174:	88 b7       	in	r24, 0x38	; 56
 176:	88 6e       	ori	r24, 0xE8	; 232
 178:	88 bf       	out	0x38, r24	; 56
 17a:	84 e1       	ldi	r24, 0x14	; 20
 17c:	90 e0       	ldi	r25, 0x00	; 0
 17e:	9b bd       	out	0x2b, r25	; 43
 180:	8a bd       	out	0x2a, r24	; 42
 182:	8f b5       	in	r24, 0x2f	; 47
 184:	8c 7f       	andi	r24, 0xFC	; 252
 186:	8f bd       	out	0x2f, r24	; 47
 188:	8e b5       	in	r24, 0x2e	; 46
 18a:	87 7e       	andi	r24, 0xE7	; 231
 18c:	88 60       	ori	r24, 0x08	; 8
 18e:	8e bd       	out	0x2e, r24	; 46
 190:	8e b5       	in	r24, 0x2e	; 46
 192:	88 7f       	andi	r24, 0xF8	; 248
 194:	84 60       	ori	r24, 0x04	; 4
 196:	8e bd       	out	0x2e, r24	; 46
 198:	89 b7       	in	r24, 0x39	; 57
 19a:	80 64       	ori	r24, 0x40	; 64
 19c:	89 bf       	out	0x39, r24	; 57
 19e:	78 94       	sei
 1a0:	10 92 62 00 	sts	0x0062, r1
 1a4:	10 92 63 00 	sts	0x0063, r1
 1a8:	10 92 64 00 	sts	0x0064, r1
 1ac:	10 92 65 00 	sts	0x0065, r1
 1b0:	08 95       	ret

000001b2 <loop>:
 1b2:	10 92 62 00 	sts	0x0062, r1
 1b6:	10 92 63 00 	sts	0x0063, r1
 1ba:	10 92 64 00 	sts	0x0064, r1
 1be:	10 92 65 00 	sts	0x0065, r1
 1c2:	c0 e0       	ldi	r28, 0x00	; 0
 1c4:	cc 24       	eor	r12, r12
 1c6:	ca 94       	dec	r12
 1c8:	dc 2c       	mov	r13, r12
 1ca:	76 01       	movw	r14, r12
 1cc:	9f e7       	ldi	r25, 0x7F	; 127
 1ce:	89 2e       	mov	r8, r25
 1d0:	91 2c       	mov	r9, r1
 1d2:	a1 2c       	mov	r10, r1
 1d4:	b1 2c       	mov	r11, r1
 1d6:	cf 5f       	subi	r28, 0xFF	; 255
 1d8:	cf 3f       	cpi	r28, 0xFF	; 255
 1da:	a1 f4       	brne	.+40     	; 0x204 <loop+0x52>
 1dc:	80 91 62 00 	lds	r24, 0x0062
 1e0:	90 91 63 00 	lds	r25, 0x0063
 1e4:	a0 91 64 00 	lds	r26, 0x0064
 1e8:	b0 91 65 00 	lds	r27, 0x0065
 1ec:	01 96       	adiw	r24, 0x01	; 1
 1ee:	a1 1d       	adc	r26, r1
 1f0:	b1 1d       	adc	r27, r1
 1f2:	80 93 62 00 	sts	0x0062, r24
 1f6:	90 93 63 00 	sts	0x0063, r25
 1fa:	a0 93 64 00 	sts	0x0064, r26
 1fe:	b0 93 65 00 	sts	0x0065, r27
 202:	c0 e0       	ldi	r28, 0x00	; 0
 204:	80 91 6b 00 	lds	r24, 0x006B
 208:	90 e0       	ldi	r25, 0x00	; 0
 20a:	6e e0       	ldi	r22, 0x0E	; 14
 20c:	70 e0       	ldi	r23, 0x00	; 0
 20e:	ca d1       	rcall	.+916    	; 0x5a4 <__mulhi3>
 210:	82 59       	subi	r24, 0x92	; 146
 212:	9f 4f       	sbci	r25, 0xFF	; 255
 214:	fc 01       	movw	r30, r24
 216:	80 81       	ld	r24, Z
 218:	82 30       	cpi	r24, 0x02	; 2
 21a:	b9 f4       	brne	.+46     	; 0x24a <loop+0x98>
 21c:	7a d1       	rcall	.+756    	; 0x512 <rfm12_rx_clear>
 21e:	c0 92 62 00 	sts	0x0062, r12
 222:	d0 92 63 00 	sts	0x0063, r13
 226:	e0 92 64 00 	sts	0x0064, r14
 22a:	f0 92 65 00 	sts	0x0065, r15
 22e:	83 ed       	ldi	r24, 0xD3	; 211
 230:	90 e3       	ldi	r25, 0x30	; 48
 232:	01 97       	sbiw	r24, 0x01	; 1
 234:	f1 f7       	brne	.-4      	; 0x232 <loop+0x80>
 236:	00 c0       	rjmp	.+0      	; 0x238 <loop+0x86>
 238:	00 00       	nop
 23a:	80 92 62 00 	sts	0x0062, r8
 23e:	90 92 63 00 	sts	0x0063, r9
 242:	a0 92 64 00 	sts	0x0064, r10
 246:	b0 92 65 00 	sts	0x0065, r11
 24a:	22 d1       	rcall	.+580    	; 0x490 <rfm12_tick>
 24c:	c4 cf       	rjmp	.-120    	; 0x1d6 <loop+0x24>

0000024e <spi_data>:
 24e:	28 e0       	ldi	r18, 0x08	; 8
 250:	87 ff       	sbrs	r24, 7
 252:	02 c0       	rjmp	.+4      	; 0x258 <spi_data+0xa>
 254:	c5 9a       	sbi	0x18, 5	; 24
 256:	01 c0       	rjmp	.+2      	; 0x25a <spi_data+0xc>
 258:	c5 98       	cbi	0x18, 5	; 24
 25a:	c7 9a       	sbi	0x18, 7	; 24
 25c:	99 0f       	add	r25, r25
 25e:	b6 99       	sbic	0x16, 6	; 22
 260:	91 60       	ori	r25, 0x01	; 1
 262:	c7 98       	cbi	0x18, 7	; 24
 264:	88 0f       	add	r24, r24
 266:	21 50       	subi	r18, 0x01	; 1
 268:	99 f7       	brne	.-26     	; 0x250 <spi_data+0x2>
 26a:	89 2f       	mov	r24, r25
 26c:	08 95       	ret

0000026e <rfm12_data>:
 26e:	cf 93       	push	r28
 270:	c8 2f       	mov	r28, r24
 272:	93 98       	cbi	0x12, 3	; 18
 274:	89 2f       	mov	r24, r25
 276:	eb df       	rcall	.-42     	; 0x24e <spi_data>
 278:	8c 2f       	mov	r24, r28
 27a:	e9 df       	rcall	.-46     	; 0x24e <spi_data>
 27c:	93 9a       	sbi	0x12, 3	; 18
 27e:	cf 91       	pop	r28
 280:	08 95       	ret

00000282 <rfm12_read>:
 282:	1f 93       	push	r17
 284:	cf 93       	push	r28
 286:	df 93       	push	r29
 288:	18 2f       	mov	r17, r24
 28a:	93 98       	cbi	0x12, 3	; 18
 28c:	89 2f       	mov	r24, r25
 28e:	df df       	rcall	.-66     	; 0x24e <spi_data>
 290:	c8 2f       	mov	r28, r24
 292:	d0 e0       	ldi	r29, 0x00	; 0
 294:	dc 2f       	mov	r29, r28
 296:	cc 27       	eor	r28, r28
 298:	81 2f       	mov	r24, r17
 29a:	d9 df       	rcall	.-78     	; 0x24e <spi_data>
 29c:	93 9a       	sbi	0x12, 3	; 18
 29e:	9e 01       	movw	r18, r28
 2a0:	28 2b       	or	r18, r24
 2a2:	c9 01       	movw	r24, r18
 2a4:	df 91       	pop	r29
 2a6:	cf 91       	pop	r28
 2a8:	1f 91       	pop	r17
 2aa:	08 95       	ret

000002ac <rfm12_power_down>:
 2ac:	80 91 66 00 	lds	r24, 0x0066
 2b0:	81 11       	cpse	r24, r1
 2b2:	fc cf       	rjmp	.-8      	; 0x2ac <rfm12_power_down>
 2b4:	8b b7       	in	r24, 0x3b	; 59
 2b6:	8f 7b       	andi	r24, 0xBF	; 191
 2b8:	8b bf       	out	0x3b, r24	; 59
 2ba:	80 91 6c 00 	lds	r24, 0x006C
 2be:	90 91 6d 00 	lds	r25, 0x006D
 2c2:	8f 77       	andi	r24, 0x7F	; 127
 2c4:	90 93 6d 00 	sts	0x006D, r25
 2c8:	80 93 6c 00 	sts	0x006C, r24
 2cc:	d0 df       	rcall	.-96     	; 0x26e <rfm12_data>
 2ce:	83 e0       	ldi	r24, 0x03	; 3
 2d0:	80 93 66 00 	sts	0x0066, r24
 2d4:	8b b7       	in	r24, 0x3b	; 59
 2d6:	80 64       	ori	r24, 0x40	; 64
 2d8:	8b bf       	out	0x3b, r24	; 59
 2da:	08 95       	ret

000002dc <rfm12_power_up>:
 2dc:	8b b7       	in	r24, 0x3b	; 59
 2de:	8f 7b       	andi	r24, 0xBF	; 191
 2e0:	8b bf       	out	0x3b, r24	; 59
 2e2:	10 92 66 00 	sts	0x0066, r1
 2e6:	ec e6       	ldi	r30, 0x6C	; 108
 2e8:	f0 e0       	ldi	r31, 0x00	; 0
 2ea:	80 81       	ld	r24, Z
 2ec:	91 81       	ldd	r25, Z+1	; 0x01
 2ee:	80 68       	ori	r24, 0x80	; 128
 2f0:	91 83       	std	Z+1, r25	; 0x01
 2f2:	80 83       	st	Z, r24
 2f4:	bc df       	rcall	.-136    	; 0x26e <rfm12_data>
 2f6:	8b b7       	in	r24, 0x3b	; 59
 2f8:	80 64       	ori	r24, 0x40	; 64
 2fa:	8b bf       	out	0x3b, r24	; 59
 2fc:	08 95       	ret

000002fe <__vector_1>:
 2fe:	78 94       	sei
 300:	1f 92       	push	r1
 302:	0f 92       	push	r0
 304:	0f b6       	in	r0, 0x3f	; 63
 306:	0f 92       	push	r0
 308:	11 24       	eor	r1, r1
 30a:	0f 93       	push	r16
 30c:	1f 93       	push	r17
 30e:	2f 93       	push	r18
 310:	3f 93       	push	r19
 312:	4f 93       	push	r20
 314:	5f 93       	push	r21
 316:	6f 93       	push	r22
 318:	7f 93       	push	r23
 31a:	8f 93       	push	r24
 31c:	9f 93       	push	r25
 31e:	af 93       	push	r26
 320:	bf 93       	push	r27
 322:	cf 93       	push	r28
 324:	df 93       	push	r29
 326:	ef 93       	push	r30
 328:	ff 93       	push	r31
 32a:	8b b7       	in	r24, 0x3b	; 59
 32c:	8f 7b       	andi	r24, 0xBF	; 191
 32e:	8b bf       	out	0x3b, r24	; 59
 330:	10 e4       	ldi	r17, 0x40	; 64
 332:	02 e0       	ldi	r16, 0x02	; 2
 334:	d1 e0       	ldi	r29, 0x01	; 1
 336:	1a bf       	out	0x3a, r17	; 58
 338:	93 98       	cbi	0x12, 3	; 18
 33a:	c5 98       	cbi	0x18, 5	; 24
 33c:	80 e0       	ldi	r24, 0x00	; 0
 33e:	98 e0       	ldi	r25, 0x08	; 8
 340:	c7 9a       	sbi	0x18, 7	; 24
 342:	88 0f       	add	r24, r24
 344:	b6 99       	sbic	0x16, 6	; 22
 346:	81 60       	ori	r24, 0x01	; 1
 348:	c7 98       	cbi	0x18, 7	; 24
 34a:	91 50       	subi	r25, 0x01	; 1
 34c:	c9 f7       	brne	.-14     	; 0x340 <__vector_1+0x42>
 34e:	93 9a       	sbi	0x12, 3	; 18
 350:	87 ff       	sbrs	r24, 7
 352:	86 c0       	rjmp	.+268    	; 0x460 <__vector_1+0x162>
 354:	c0 91 66 00 	lds	r28, 0x0066
 358:	c1 30       	cpi	r28, 0x01	; 1
 35a:	61 f1       	breq	.+88     	; 0x3b4 <__vector_1+0xb6>
 35c:	38 f0       	brcs	.+14     	; 0x36c <__vector_1+0x6e>
 35e:	c2 30       	cpi	r28, 0x02	; 2
 360:	09 f4       	brne	.+2      	; 0x364 <__vector_1+0x66>
 362:	5d c0       	rjmp	.+186    	; 0x41e <__vector_1+0x120>
 364:	c3 30       	cpi	r28, 0x03	; 3
 366:	09 f4       	brne	.+2      	; 0x36a <__vector_1+0x6c>
 368:	6f c0       	rjmp	.+222    	; 0x448 <__vector_1+0x14a>
 36a:	71 c0       	rjmp	.+226    	; 0x44e <__vector_1+0x150>
 36c:	d0 93 69 00 	sts	0x0069, r29
 370:	80 e0       	ldi	r24, 0x00	; 0
 372:	90 eb       	ldi	r25, 0xB0	; 176
 374:	86 df       	rcall	.-244    	; 0x282 <rfm12_read>
 376:	48 2f       	mov	r20, r24
 378:	80 93 60 00 	sts	0x0060, r24
 37c:	83 e0       	ldi	r24, 0x03	; 3
 37e:	84 0f       	add	r24, r20
 380:	80 93 68 00 	sts	0x0068, r24
 384:	20 91 6a 00 	lds	r18, 0x006A
 388:	30 e0       	ldi	r19, 0x00	; 0
 38a:	c9 01       	movw	r24, r18
 38c:	6e e0       	ldi	r22, 0x0E	; 14
 38e:	70 e0       	ldi	r23, 0x00	; 0
 390:	09 d1       	rcall	.+530    	; 0x5a4 <__mulhi3>
 392:	fc 01       	movw	r30, r24
 394:	e2 59       	subi	r30, 0x92	; 146
 396:	ff 4f       	sbci	r31, 0xFF	; 255
 398:	80 81       	ld	r24, Z
 39a:	81 11       	cpse	r24, r1
 39c:	58 c0       	rjmp	.+176    	; 0x44e <__vector_1+0x150>
 39e:	d0 93 66 00 	sts	0x0066, r29
 3a2:	c9 01       	movw	r24, r18
 3a4:	6e e0       	ldi	r22, 0x0E	; 14
 3a6:	70 e0       	ldi	r23, 0x00	; 0
 3a8:	fd d0       	rcall	.+506    	; 0x5a4 <__mulhi3>
 3aa:	fc 01       	movw	r30, r24
 3ac:	e2 59       	subi	r30, 0x92	; 146
 3ae:	ff 4f       	sbci	r31, 0xFF	; 255
 3b0:	41 83       	std	Z+1, r20	; 0x01
 3b2:	c1 cf       	rjmp	.-126    	; 0x336 <__vector_1+0x38>
 3b4:	80 e0       	ldi	r24, 0x00	; 0
 3b6:	90 eb       	ldi	r25, 0xB0	; 176
 3b8:	64 df       	rcall	.-312    	; 0x282 <rfm12_read>
 3ba:	48 2f       	mov	r20, r24
 3bc:	20 91 69 00 	lds	r18, 0x0069
 3c0:	80 91 68 00 	lds	r24, 0x0068
 3c4:	28 17       	cp	r18, r24
 3c6:	e0 f4       	brcc	.+56     	; 0x400 <__vector_1+0x102>
 3c8:	30 91 60 00 	lds	r19, 0x0060
 3cc:	34 27       	eor	r19, r20
 3ce:	30 93 60 00 	sts	0x0060, r19
 3d2:	2d 30       	cpi	r18, 0x0D	; 13
 3d4:	20 f0       	brcs	.+8      	; 0x3de <__vector_1+0xe0>
 3d6:	2f 5f       	subi	r18, 0xFF	; 255
 3d8:	20 93 69 00 	sts	0x0069, r18
 3dc:	ac cf       	rjmp	.-168    	; 0x336 <__vector_1+0x38>
 3de:	80 91 6a 00 	lds	r24, 0x006A
 3e2:	90 e0       	ldi	r25, 0x00	; 0
 3e4:	6e e0       	ldi	r22, 0x0E	; 14
 3e6:	70 e0       	ldi	r23, 0x00	; 0
 3e8:	dd d0       	rcall	.+442    	; 0x5a4 <__mulhi3>
 3ea:	fc 01       	movw	r30, r24
 3ec:	e1 59       	subi	r30, 0x91	; 145
 3ee:	ff 4f       	sbci	r31, 0xFF	; 255
 3f0:	e2 0f       	add	r30, r18
 3f2:	f1 1d       	adc	r31, r1
 3f4:	40 83       	st	Z, r20
 3f6:	22 30       	cpi	r18, 0x02	; 2
 3f8:	71 f7       	brne	.-36     	; 0x3d6 <__vector_1+0xd8>
 3fa:	3f 3f       	cpi	r19, 0xFF	; 255
 3fc:	41 f5       	brne	.+80     	; 0x44e <__vector_1+0x150>
 3fe:	eb cf       	rjmp	.-42     	; 0x3d6 <__vector_1+0xd8>
 400:	20 91 6a 00 	lds	r18, 0x006A
 404:	82 2f       	mov	r24, r18
 406:	90 e0       	ldi	r25, 0x00	; 0
 408:	6e e0       	ldi	r22, 0x0E	; 14
 40a:	70 e0       	ldi	r23, 0x00	; 0
 40c:	cb d0       	rcall	.+406    	; 0x5a4 <__mulhi3>
 40e:	82 59       	subi	r24, 0x92	; 146
 410:	9f 4f       	sbci	r25, 0xFF	; 255
 412:	fc 01       	movw	r30, r24
 414:	00 83       	st	Z, r16
 416:	c2 27       	eor	r28, r18
 418:	c0 93 6a 00 	sts	0x006A, r28
 41c:	18 c0       	rjmp	.+48     	; 0x44e <__vector_1+0x150>
 41e:	90 91 69 00 	lds	r25, 0x0069
 422:	80 91 68 00 	lds	r24, 0x0068
 426:	98 17       	cp	r25, r24
 428:	08 f4       	brcc	.+2      	; 0x42c <__vector_1+0x12e>
 42a:	85 cf       	rjmp	.-246    	; 0x336 <__vector_1+0x38>
 42c:	10 92 67 00 	sts	0x0067, r1
 430:	80 91 6c 00 	lds	r24, 0x006C
 434:	90 91 6d 00 	lds	r25, 0x006D
 438:	8f 7d       	andi	r24, 0xDF	; 223
 43a:	81 68       	ori	r24, 0x81	; 129
 43c:	92 68       	ori	r25, 0x82	; 130
 43e:	90 93 6d 00 	sts	0x006D, r25
 442:	80 93 6c 00 	sts	0x006C, r24
 446:	13 df       	rcall	.-474    	; 0x26e <rfm12_data>
 448:	8a ea       	ldi	r24, 0xAA	; 170
 44a:	98 eb       	ldi	r25, 0xB8	; 184
 44c:	10 df       	rcall	.-480    	; 0x26e <rfm12_data>
 44e:	10 92 66 00 	sts	0x0066, r1
 452:	81 e8       	ldi	r24, 0x81	; 129
 454:	9a ec       	ldi	r25, 0xCA	; 202
 456:	0b df       	rcall	.-490    	; 0x26e <rfm12_data>
 458:	83 e8       	ldi	r24, 0x83	; 131
 45a:	9a ec       	ldi	r25, 0xCA	; 202
 45c:	08 df       	rcall	.-496    	; 0x26e <rfm12_data>
 45e:	6b cf       	rjmp	.-298    	; 0x336 <__vector_1+0x38>
 460:	8b b7       	in	r24, 0x3b	; 59
 462:	80 64       	ori	r24, 0x40	; 64
 464:	8b bf       	out	0x3b, r24	; 59
 466:	ff 91       	pop	r31
 468:	ef 91       	pop	r30
 46a:	df 91       	pop	r29
 46c:	cf 91       	pop	r28
 46e:	bf 91       	pop	r27
 470:	af 91       	pop	r26
 472:	9f 91       	pop	r25
 474:	8f 91       	pop	r24
 476:	7f 91       	pop	r23
 478:	6f 91       	pop	r22
 47a:	5f 91       	pop	r21
 47c:	4f 91       	pop	r20
 47e:	3f 91       	pop	r19
 480:	2f 91       	pop	r18
 482:	1f 91       	pop	r17
 484:	0f 91       	pop	r16
 486:	0f 90       	pop	r0
 488:	0f be       	out	0x3f, r0	; 63
 48a:	0f 90       	pop	r0
 48c:	1f 90       	pop	r1
 48e:	18 95       	reti

00000490 <rfm12_tick>:
 490:	80 91 66 00 	lds	r24, 0x0066
 494:	81 11       	cpse	r24, r1
 496:	29 c0       	rjmp	.+82     	; 0x4ea <rfm12_tick+0x5a>
 498:	80 91 67 00 	lds	r24, 0x0067
 49c:	81 30       	cpi	r24, 0x01	; 1
 49e:	29 f5       	brne	.+74     	; 0x4ea <rfm12_tick+0x5a>
 4a0:	8b b7       	in	r24, 0x3b	; 59
 4a2:	8f 7b       	andi	r24, 0xBF	; 191
 4a4:	8b bf       	out	0x3b, r24	; 59
 4a6:	80 91 6c 00 	lds	r24, 0x006C
 4aa:	90 91 6d 00 	lds	r25, 0x006D
 4ae:	8f 77       	andi	r24, 0x7F	; 127
 4b0:	90 93 6d 00 	sts	0x006D, r25
 4b4:	80 93 6c 00 	sts	0x006C, r24
 4b8:	da de       	rcall	.-588    	; 0x26e <rfm12_data>
 4ba:	10 92 69 00 	sts	0x0069, r1
 4be:	82 e0       	ldi	r24, 0x02	; 2
 4c0:	80 93 66 00 	sts	0x0066, r24
 4c4:	8a ea       	ldi	r24, 0xAA	; 170
 4c6:	98 eb       	ldi	r25, 0xB8	; 184
 4c8:	d2 de       	rcall	.-604    	; 0x26e <rfm12_data>
 4ca:	8a ea       	ldi	r24, 0xAA	; 170
 4cc:	98 eb       	ldi	r25, 0xB8	; 184
 4ce:	cf de       	rcall	.-610    	; 0x26e <rfm12_data>
 4d0:	80 91 6c 00 	lds	r24, 0x006C
 4d4:	90 91 6d 00 	lds	r25, 0x006D
 4d8:	80 62       	ori	r24, 0x20	; 32
 4da:	90 93 6d 00 	sts	0x006D, r25
 4de:	80 93 6c 00 	sts	0x006C, r24
 4e2:	c5 de       	rcall	.-630    	; 0x26e <rfm12_data>
 4e4:	8b b7       	in	r24, 0x3b	; 59
 4e6:	80 64       	ori	r24, 0x40	; 64
 4e8:	8b bf       	out	0x3b, r24	; 59
 4ea:	08 95       	ret

000004ec <rfm12_start_tx>:
 4ec:	80 91 67 00 	lds	r24, 0x0067
 4f0:	81 11       	cpse	r24, r1
 4f2:	03 c0       	rjmp	.+6      	; 0x4fa <rfm12_start_tx+0xe>
 4f4:	81 e0       	ldi	r24, 0x01	; 1
 4f6:	80 93 67 00 	sts	0x0067, r24
 4fa:	08 95       	ret

000004fc <rfm12_tx>:
 4fc:	96 2f       	mov	r25, r22
 4fe:	81 11       	cpse	r24, r1
 500:	07 c0       	rjmp	.+14     	; 0x510 <rfm12_tx+0x14>
 502:	80 91 67 00 	lds	r24, 0x0067
 506:	81 11       	cpse	r24, r1
 508:	03 c0       	rjmp	.+6      	; 0x510 <rfm12_tx+0x14>
 50a:	60 e0       	ldi	r22, 0x00	; 0
 50c:	89 2f       	mov	r24, r25
 50e:	ee cf       	rjmp	.-36     	; 0x4ec <rfm12_start_tx>
 510:	08 95       	ret

00000512 <rfm12_rx_clear>:
 512:	eb e6       	ldi	r30, 0x6B	; 107
 514:	f0 e0       	ldi	r31, 0x00	; 0
 516:	20 81       	ld	r18, Z
 518:	82 2f       	mov	r24, r18
 51a:	90 e0       	ldi	r25, 0x00	; 0
 51c:	6e e0       	ldi	r22, 0x0E	; 14
 51e:	70 e0       	ldi	r23, 0x00	; 0
 520:	41 d0       	rcall	.+130    	; 0x5a4 <__mulhi3>
 522:	82 59       	subi	r24, 0x92	; 146
 524:	9f 4f       	sbci	r25, 0xFF	; 255
 526:	dc 01       	movw	r26, r24
 528:	1c 92       	st	X, r1
 52a:	81 e0       	ldi	r24, 0x01	; 1
 52c:	82 27       	eor	r24, r18
 52e:	80 83       	st	Z, r24
 530:	08 95       	ret

00000532 <rfm12_init>:
 532:	cf 93       	push	r28
 534:	df 93       	push	r29
 536:	93 9a       	sbi	0x12, 3	; 18
 538:	8b 9a       	sbi	0x11, 3	; 17
 53a:	bd 9a       	sbi	0x17, 5	; 23
 53c:	bf 9a       	sbi	0x17, 7	; 23
 53e:	be 98       	cbi	0x17, 6	; 23
 540:	10 92 6a 00 	sts	0x006A, r1
 544:	10 92 6b 00 	sts	0x006B, r1
 548:	81 e8       	ldi	r24, 0x81	; 129
 54a:	92 e8       	ldi	r25, 0x82	; 130
 54c:	90 93 6d 00 	sts	0x006D, r25
 550:	80 93 6c 00 	sts	0x006C, r24
 554:	ca e2       	ldi	r28, 0x2A	; 42
 556:	d0 e0       	ldi	r29, 0x00	; 0
 558:	fe 01       	movw	r30, r28
 55a:	85 91       	lpm	r24, Z+
 55c:	94 91       	lpm	r25, Z
 55e:	87 de       	rcall	.-754    	; 0x26e <rfm12_data>
 560:	22 96       	adiw	r28, 0x02	; 2
 562:	80 e0       	ldi	r24, 0x00	; 0
 564:	c2 34       	cpi	r28, 0x42	; 66
 566:	d8 07       	cpc	r29, r24
 568:	b9 f7       	brne	.-18     	; 0x558 <rfm12_init+0x26>
 56a:	85 b7       	in	r24, 0x35	; 53
 56c:	82 60       	ori	r24, 0x02	; 2
 56e:	85 bf       	out	0x35, r24	; 53
 570:	80 e0       	ldi	r24, 0x00	; 0
 572:	90 e0       	ldi	r25, 0x00	; 0
 574:	86 de       	rcall	.-756    	; 0x282 <rfm12_read>
 576:	80 e4       	ldi	r24, 0x40	; 64
 578:	8a bf       	out	0x3a, r24	; 58
 57a:	81 e8       	ldi	r24, 0x81	; 129
 57c:	9a ec       	ldi	r25, 0xCA	; 202
 57e:	77 de       	rcall	.-786    	; 0x26e <rfm12_data>
 580:	83 e8       	ldi	r24, 0x83	; 131
 582:	9a ec       	ldi	r25, 0xCA	; 202
 584:	74 de       	rcall	.-792    	; 0x26e <rfm12_data>
 586:	8b b7       	in	r24, 0x3b	; 59
 588:	80 64       	ori	r24, 0x40	; 64
 58a:	8b bf       	out	0x3b, r24	; 59
 58c:	df 91       	pop	r29
 58e:	cf 91       	pop	r28
 590:	08 95       	ret

00000592 <main>:
 592:	83 ed       	ldi	r24, 0xD3	; 211
 594:	90 e3       	ldi	r25, 0x30	; 48
 596:	01 97       	sbiw	r24, 0x01	; 1
 598:	f1 f7       	brne	.-4      	; 0x596 <main+0x4>
 59a:	00 c0       	rjmp	.+0      	; 0x59c <main+0xa>
 59c:	00 00       	nop
 59e:	c9 df       	rcall	.-110    	; 0x532 <rfm12_init>
 5a0:	d1 dd       	rcall	.-1118   	; 0x144 <setup>
 5a2:	07 de       	rcall	.-1010   	; 0x1b2 <loop>

000005a4 <__mulhi3>:
 5a4:	00 24       	eor	r0, r0
 5a6:	55 27       	eor	r21, r21
 5a8:	04 c0       	rjmp	.+8      	; 0x5b2 <__mulhi3+0xe>
 5aa:	08 0e       	add	r0, r24
 5ac:	59 1f       	adc	r21, r25
 5ae:	88 0f       	add	r24, r24
 5b0:	99 1f       	adc	r25, r25
 5b2:	00 97       	sbiw	r24, 0x00	; 0
 5b4:	29 f0       	breq	.+10     	; 0x5c0 <__mulhi3+0x1c>
 5b6:	76 95       	lsr	r23
 5b8:	67 95       	ror	r22
 5ba:	b8 f3       	brcs	.-18     	; 0x5aa <__mulhi3+0x6>
 5bc:	71 05       	cpc	r23, r1
 5be:	b9 f7       	brne	.-18     	; 0x5ae <__mulhi3+0xa>
 5c0:	80 2d       	mov	r24, r0
 5c2:	95 2f       	mov	r25, r21
 5c4:	08 95       	ret

000005c6 <_exit>:
 5c6:	f8 94       	cli

000005c8 <__stop_program>:
 5c8:	ff cf       	rjmp	.-2      	; 0x5c8 <__stop_program>
